; Function Attrs: nounwind uwtable
define void @prte_rmaps_base_display_map(ptr noundef %0) local_unnamed_addr #0 {
  %2 = alloca %struct.pmix_proc, align 4
  %3 = alloca ptr, align 8
  call void @llvm.lifetime.start.p0(i64 260, ptr nonnull %2) #15
  call void @llvm.lifetime.start.p0(i64 8, ptr nonnull %3) #15
  call void @prte_map_print(ptr noundef nonnull %3, ptr noundef %0) #15
  %4 = getelementptr inbounds nuw i8, ptr %0, i64 168
  call void @PMIx_Load_procid(ptr noundef nonnull %2, ptr noundef nonnull %4, i32 noundef -2) #15
  %5 = load ptr, ptr %3, align 8, !tbaa !75
  call void @prte_iof_base_output(ptr noundef nonnull %2, i16 noundef zeroext 2, ptr noundef %5) #15
  call void @llvm.lifetime.end.p0(i64 8, ptr nonnull %3) #15
  call void @llvm.lifetime.end.p0(i64 260, ptr nonnull %2) #15
  ret void
}